target datalayout = "e-m:e-p270:32:32-p271:32:32-p272:64:64-i64:64-i128:128-f80:128-n8:16:32:64-S128"
target triple = "x86_64-pc-linux-gnu"

%struct.aiScene = type { i32, ptr, i32, ptr, i32, ptr, i32, ptr, i32, ptr, i32, ptr, i32, ptr, ptr, %struct.aiString, i32, ptr, ptr }
%struct.aiString = type { i32, [1024 x i8] }

@.str = private unnamed_addr constant [32 x i8] c"FixInfacingNormalsProcess begin\00", align 1
@.str.1 = private unnamed_addr constant [50 x i8] c"FixInfacingNormalsProcess finished. Found issues.\00", align 1
@.str.2 = private unnamed_addr constant [61 x i8] c"FixInfacingNormalsProcess finished. No changes to the scene.\00", align 1

; Function Attrs: mustprogress uwtable
define hidden void @_ZN6Assimp25FixInfacingNormalsProcess7ExecuteEP7aiScene(ptr noundef nonnull align 8 dereferenceable(24) %0, ptr noundef %1) unnamed_addr #1 align 2 {
  %3 = alloca ptr, align 8
  %4 = alloca ptr, align 8
  %5 = alloca i8, align 1
  %6 = alloca i32, align 4
  store ptr %0, ptr %3, align 8
  store ptr %1, ptr %4, align 8
  %7 = load ptr, ptr %3, align 8
  %8 = call noundef ptr @_ZN6Assimp13DefaultLogger3getEv()
  call void @_ZN6Assimp6Logger5debugEPKc(ptr noundef nonnull align 8 dereferenceable(12) %8, ptr noundef @.str)
  call void @llvm.lifetime.start.p0(i64 1, ptr %5) #14
  store i8 0, ptr %5, align 1
  call void @llvm.lifetime.start.p0(i64 4, ptr %6) #14
  store i32 0, ptr %6, align 4
  br label %9

9:                                                ; preds = %28, %2
  %10 = load i32, ptr %6, align 4
  %11 = load ptr, ptr %4, align 8
  %12 = getelementptr inbounds nuw %struct.aiScene, ptr %11, i32 0, i32 2
  %13 = load i32, ptr %12, align 8
  %14 = icmp ult i32 %10, %13
  br i1 %14, label %16, label %15

15:                                               ; preds = %9
  call void @llvm.lifetime.end.p0(i64 4, ptr %6) #14
  br label %31

16:                                               ; preds = %9
  %17 = load ptr, ptr %4, align 8
  %18 = getelementptr inbounds nuw %struct.aiScene, ptr %17, i32 0, i32 3
  %19 = load ptr, ptr %18, align 8
  %20 = load i32, ptr %6, align 4
  %21 = zext i32 %20 to i64
  %22 = getelementptr inbounds nuw ptr, ptr %19, i64 %21
  %23 = load ptr, ptr %22, align 8
  %24 = load i32, ptr %6, align 4
  %25 = call noundef zeroext i1 @_ZN6Assimp25FixInfacingNormalsProcess11ProcessMeshEP6aiMeshj(ptr noundef nonnull align 8 dereferenceable(24) %7, ptr noundef %23, i32 noundef %24)
  br i1 %25, label %26, label %27

26:                                               ; preds = %16
  store i8 1, ptr %5, align 1
  br label %27

27:                                               ; preds = %26, %16
  br label %28

28:                                               ; preds = %27
  %29 = load i32, ptr %6, align 4
  %30 = add i32 %29, 1
  store i32 %30, ptr %6, align 4
  br label %9, !llvm.loop !3

31:                                               ; preds = %15
  %32 = load i8, ptr %5, align 1, !range !5, !noundef !6
  %33 = trunc i8 %32 to i1
  br i1 %33, label %34, label %36

34:                                               ; preds = %31
  %35 = call noundef ptr @_ZN6Assimp13DefaultLogger3getEv()
  call void @_ZN6Assimp6Logger5debugEPKc(ptr noundef nonnull align 8 dereferenceable(12) %35, ptr noundef @.str.1)
  br label %38

36:                                               ; preds = %31
  %37 = call noundef ptr @_ZN6Assimp13DefaultLogger3getEv()
  call void @_ZN6Assimp6Logger5debugEPKc(ptr noundef nonnull align 8 dereferenceable(12) %37, ptr noundef @.str.2)
  br label %38

38:                                               ; preds = %36, %34
  call void @llvm.lifetime.end.p0(i64 1, ptr %5) #14
  ret void
}