; Function Attrs: mustprogress uwtable
define hidden void @_ZN6Assimp25FixInfacingNormalsProcess7ExecuteEP7aiScene(ptr noundef nonnull readnone align 8 captures(none) dereferenceable(24) %0, ptr noundef readonly captures(none) %1) unnamed_addr #1 align 2 {
  %3 = tail call noundef ptr @_ZN6Assimp13DefaultLogger3getEv()
  tail call void @_ZN6Assimp6Logger5debugEPKc(ptr noundef nonnull align 8 dereferenceable(12) %3, ptr noundef nonnull @.str)
  %4 = getelementptr inbounds nuw i8, ptr %1, i64 16
  %5 = load i32, ptr %4, align 8
  %.not = icmp eq i32 %5, 0
  br i1 %.not, label %.critedge, label %.lr.ph

.lr.ph:                                           ; preds = %2
  %6 = getelementptr inbounds nuw i8, ptr %1, i64 24
  br label %7

._crit_edge:                                      ; preds = %7
  br i1 %spec.select, label %16, label %.critedge

7:                                                ; preds = %.lr.ph, %7
  %indvars.iv = phi i64 [ 0, %.lr.ph ], [ %indvars.iv.next, %7 ]
  %.078 = phi i1 [ false, %.lr.ph ], [ %spec.select, %7 ]
  %8 = load ptr, ptr %6, align 8
  %9 = getelementptr inbounds nuw ptr, ptr %8, i64 %indvars.iv
  %10 = load ptr, ptr %9, align 8
  %11 = trunc nuw i64 %indvars.iv to i32
  %12 = tail call noundef zeroext i1 @_ZN6Assimp25FixInfacingNormalsProcess11ProcessMeshEP6aiMeshj(ptr nonnull align 8 poison, ptr noundef %10, i32 noundef %11)
  %spec.select = select i1 %12, i1 true, i1 %.078
  %indvars.iv.next = add nuw nsw i64 %indvars.iv, 1
  %13 = load i32, ptr %4, align 8
  %14 = zext i32 %13 to i64
  %15 = icmp samesign ult i64 %indvars.iv.next, %14
  br i1 %15, label %7, label %._crit_edge, !llvm.loop !3

.critedge:                                        ; preds = %2, %._crit_edge
  br label %16

16:                                               ; preds = %._crit_edge, %.critedge
  %.str.2.sink = phi ptr [ @.str.2, %.critedge ], [ @.str.1, %._crit_edge ]
  %17 = tail call noundef ptr @_ZN6Assimp13DefaultLogger3getEv()
  tail call void @_ZN6Assimp6Logger5debugEPKc(ptr noundef nonnull align 8 dereferenceable(12) %17, ptr noundef nonnull %.str.2.sink)
  ret void
}